target datalayout = "e-m:e-p270:32:32-p271:32:32-p272:64:64-i64:64-i128:128-f80:128-n8:16:32:64-S128"
target triple = "x86_64-pc-linux-gnu"

%struct.dsa_area_control = type { %struct.dsa_segment_header, i32, [1024 x i32], [16 x i64], [38 x %struct.dsa_area_pool], i64, i64, i64, i64, i64, i32, i8, i64, i32, %struct.LWLock }
%struct.dsa_segment_header = type { i32, i64, i64, i64, i64, i64, i8 }
%struct.dsa_area_pool = type { %struct.LWLock, [4 x i64] }
%struct.LWLock = type { i16, %struct.pg_atomic_uint32, %struct.proclist_head }
%struct.pg_atomic_uint32 = type { i32 }
%struct.proclist_head = type { i32, i32 }
%struct.dsa_area = type { ptr, ptr, [1024 x %struct.dsa_segment_map], i64, i64 }
%struct.dsa_segment_map = type { ptr, ptr, ptr, ptr, ptr }
%struct.dsa_area_span = type { i64, i64, i64, i64, i64, i16, i16, i16, i16, i16, i16 }

; Function Attrs: nounwind uwtable
define internal void @check_for_freed_segments(ptr noundef %0) #0 {
  %2 = alloca ptr, align 8
  %3 = alloca i64, align 8
  store ptr %0, ptr %2, align 8
  call void @llvm.lifetime.start.p0(i64 8, ptr %3) #8
  call void asm sideeffect "", "~{memory},~{dirflag},~{fpsr},~{flags}"() #8, !srcloc !13
  %4 = load ptr, ptr %2, align 8
  %5 = getelementptr inbounds nuw %struct.dsa_area, ptr %4, i32 0, i32 0
  %6 = load ptr, ptr %5, align 8
  %7 = getelementptr inbounds nuw %struct.dsa_area_control, ptr %6, i32 0, i32 12
  %8 = load i64, ptr %7, align 8
  store i64 %8, ptr %3, align 8
  %9 = load ptr, ptr %2, align 8
  %10 = getelementptr inbounds nuw %struct.dsa_area, ptr %9, i32 0, i32 4
  %11 = load i64, ptr %10, align 8
  %12 = load i64, ptr %3, align 8
  %13 = icmp ne i64 %11, %12
  %14 = zext i1 %13 to i32
  %15 = icmp ne i32 %14, 0
  %16 = zext i1 %15 to i32
  %17 = sext i32 %16 to i64
  %18 = call i64 @llvm.expect.i64(i64 %17, i64 0)
  %19 = icmp ne i64 %18, 0
  br i1 %19, label %20, label %31

20:                                               ; preds = %1
  %21 = load ptr, ptr %2, align 8
  %22 = getelementptr inbounds nuw %struct.dsa_area, ptr %21, i32 0, i32 0
  %23 = load ptr, ptr %22, align 8
  %24 = getelementptr inbounds nuw %struct.dsa_area_control, ptr %23, i32 0, i32 14
  %25 = call zeroext i1 @LWLockAcquire(ptr noundef %24, i32 noundef 0)
  %26 = load ptr, ptr %2, align 8
  call void @check_for_freed_segments_locked(ptr noundef %26)
  %27 = load ptr, ptr %2, align 8
  %28 = getelementptr inbounds nuw %struct.dsa_area, ptr %27, i32 0, i32 0
  %29 = load ptr, ptr %28, align 8
  %30 = getelementptr inbounds nuw %struct.dsa_area_control, ptr %29, i32 0, i32 14
  call void @LWLockRelease(ptr noundef %30)
  br label %31

31:                                               ; preds = %20, %1
  call void @llvm.lifetime.end.p0(i64 8, ptr %3) #8
  ret void
}

; Function Attrs: nounwind uwtable
define dso_local ptr @dsa_get_address(ptr noundef %0, i64 noundef %1) #0 {
  %3 = alloca ptr, align 8
  %4 = alloca ptr, align 8
  %5 = alloca i64, align 8
  %6 = alloca i64, align 8
  %7 = alloca i64, align 8
  %8 = alloca i32, align 4
  store ptr %0, ptr %4, align 8
  store i64 %1, ptr %5, align 8
  call void @llvm.lifetime.start.p0(i64 8, ptr %6) #8
  call void @llvm.lifetime.start.p0(i64 8, ptr %7) #8
  %9 = load i64, ptr %5, align 8
  %10 = icmp ne i64 %9, 0
  br i1 %10, label %12, label %11

11:                                               ; preds = %2
  store ptr null, ptr %3, align 8
  store i32 1, ptr %8, align 4
  br label %44

12:                                               ; preds = %2
  %13 = load ptr, ptr %4, align 8
  call void @check_for_freed_segments(ptr noundef %13)
  %14 = load i64, ptr %5, align 8
  %15 = lshr i64 %14, 40
  store i64 %15, ptr %6, align 8
  %16 = load i64, ptr %5, align 8
  %17 = and i64 %16, 1099511627775
  store i64 %17, ptr %7, align 8
  %18 = load ptr, ptr %4, align 8
  %19 = getelementptr inbounds nuw %struct.dsa_area, ptr %18, i32 0, i32 2
  %20 = load i64, ptr %6, align 8
  %21 = getelementptr inbounds nuw [1024 x %struct.dsa_segment_map], ptr %19, i64 0, i64 %20
  %22 = getelementptr inbounds nuw %struct.dsa_segment_map, ptr %21, i32 0, i32 1
  %23 = load ptr, ptr %22, align 8
  %24 = icmp eq ptr %23, null
  %25 = zext i1 %24 to i32
  %26 = icmp ne i32 %25, 0
  %27 = zext i1 %26 to i32
  %28 = sext i32 %27 to i64
  %29 = call i64 @llvm.expect.i64(i64 %28, i64 0)
  %30 = icmp ne i64 %29, 0
  br i1 %30, label %31, label %35

31:                                               ; preds = %12
  %32 = load ptr, ptr %4, align 8
  %33 = load i64, ptr %6, align 8
  %34 = call ptr @get_segment_by_index(ptr noundef %32, i64 noundef %33)
  br label %35

35:                                               ; preds = %31, %12
  %36 = load ptr, ptr %4, align 8
  %37 = getelementptr inbounds nuw %struct.dsa_area, ptr %36, i32 0, i32 2
  %38 = load i64, ptr %6, align 8
  %39 = getelementptr inbounds nuw [1024 x %struct.dsa_segment_map], ptr %37, i64 0, i64 %38
  %40 = getelementptr inbounds nuw %struct.dsa_segment_map, ptr %39, i32 0, i32 1
  %41 = load ptr, ptr %40, align 8
  %42 = load i64, ptr %7, align 8
  %43 = getelementptr inbounds nuw i8, ptr %41, i64 %42
  store ptr %43, ptr %3, align 8
  store i32 1, ptr %8, align 4
  br label %44

44:                                               ; preds = %35, %11
  call void @llvm.lifetime.end.p0(i64 8, ptr %7) #8
  call void @llvm.lifetime.end.p0(i64 8, ptr %6) #8
  %45 = load ptr, ptr %3, align 8
  ret ptr %45
}

; Function Attrs: nounwind uwtable
define internal void @init_span(ptr noundef %0, i64 noundef %1, ptr noundef %2, i64 noundef %3, i64 noundef %4, i16 noundef zeroext %5) #0 {
  %7 = alloca ptr, align 8
  %8 = alloca i64, align 8
  %9 = alloca ptr, align 8
  %10 = alloca i64, align 8
  %11 = alloca i64, align 8
  %12 = alloca i16, align 2
  %13 = alloca ptr, align 8
  %14 = alloca i64, align 8
  %15 = alloca ptr, align 8
  store ptr %0, ptr %7, align 8
  store i64 %1, ptr %8, align 8
  store ptr %2, ptr %9, align 8
  store i64 %3, ptr %10, align 8
  store i64 %4, ptr %11, align 8
  store i16 %5, ptr %12, align 2
  call void @llvm.lifetime.start.p0(i64 8, ptr %13) #8
  %16 = load ptr, ptr %7, align 8
  %17 = load i64, ptr %8, align 8
  %18 = call ptr @dsa_get_address(ptr noundef %16, i64 noundef %17)
  store ptr %18, ptr %13, align 8
  call void @llvm.lifetime.start.p0(i64 8, ptr %14) #8
  %19 = load i16, ptr %12, align 2
  %20 = zext i16 %19 to i64
  %21 = getelementptr inbounds nuw [38 x i16], ptr @dsa_size_classes, i64 0, i64 %20
  %22 = load i16, ptr %21, align 2
  %23 = zext i16 %22 to i64
  store i64 %23, ptr %14, align 8
  %24 = load ptr, ptr %9, align 8
  %25 = getelementptr inbounds nuw %struct.dsa_area_pool, ptr %24, i32 0, i32 1
  %26 = getelementptr inbounds [4 x i64], ptr %25, i64 0, i64 1
  %27 = load i64, ptr %26, align 8
  %28 = icmp ne i64 %27, 0
  br i1 %28, label %29, label %39

29:                                               ; preds = %6
  call void @llvm.lifetime.start.p0(i64 8, ptr %15) #8
  %30 = load ptr, ptr %7, align 8
  %31 = load ptr, ptr %9, align 8
  %32 = getelementptr inbounds nuw %struct.dsa_area_pool, ptr %31, i32 0, i32 1
  %33 = getelementptr inbounds [4 x i64], ptr %32, i64 0, i64 1
  %34 = load i64, ptr %33, align 8
  %35 = call ptr @dsa_get_address(ptr noundef %30, i64 noundef %34)
  store ptr %35, ptr %15, align 8
  %36 = load i64, ptr %8, align 8
  %37 = load ptr, ptr %15, align 8
  %38 = getelementptr inbounds nuw %struct.dsa_area_span, ptr %37, i32 0, i32 1
  store i64 %36, ptr %38, align 8
  call void @llvm.lifetime.end.p0(i64 8, ptr %15) #8
  br label %39

39:                                               ; preds = %29, %6
  %40 = load ptr, ptr %9, align 8
  %41 = load ptr, ptr %7, align 8
  %42 = getelementptr inbounds nuw %struct.dsa_area, ptr %41, i32 0, i32 0
  %43 = load ptr, ptr %42, align 8
  %44 = ptrtoint ptr %40 to i64
  %45 = ptrtoint ptr %43 to i64
  %46 = sub i64 %44, %45
  %47 = or i64 0, %46
  %48 = load ptr, ptr %13, align 8
  %49 = getelementptr inbounds nuw %struct.dsa_area_span, ptr %48, i32 0, i32 0
  store i64 %47, ptr %49, align 8
  %50 = load ptr, ptr %9, align 8
  %51 = getelementptr inbounds nuw %struct.dsa_area_pool, ptr %50, i32 0, i32 1
  %52 = getelementptr inbounds [4 x i64], ptr %51, i64 0, i64 1
  %53 = load i64, ptr %52, align 8
  %54 = load ptr, ptr %13, align 8
  %55 = getelementptr inbounds nuw %struct.dsa_area_span, ptr %54, i32 0, i32 2
  store i64 %53, ptr %55, align 8
  %56 = load ptr, ptr %13, align 8
  %57 = getelementptr inbounds nuw %struct.dsa_area_span, ptr %56, i32 0, i32 1
  store i64 0, ptr %57, align 8
  %58 = load i64, ptr %8, align 8
  %59 = load ptr, ptr %9, align 8
  %60 = getelementptr inbounds nuw %struct.dsa_area_pool, ptr %59, i32 0, i32 1
  %61 = getelementptr inbounds [4 x i64], ptr %60, i64 0, i64 1
  store i64 %58, ptr %61, align 8
  %62 = load i64, ptr %10, align 8
  %63 = load ptr, ptr %13, align 8
  %64 = getelementptr inbounds nuw %struct.dsa_area_span, ptr %63, i32 0, i32 3
  store i64 %62, ptr %64, align 8
  %65 = load i64, ptr %11, align 8
  %66 = load ptr, ptr %13, align 8
  %67 = getelementptr inbounds nuw %struct.dsa_area_span, ptr %66, i32 0, i32 4
  store i64 %65, ptr %67, align 8
  %68 = load i16, ptr %12, align 2
  %69 = load ptr, ptr %13, align 8
  %70 = getelementptr inbounds nuw %struct.dsa_area_span, ptr %69, i32 0, i32 5
  store i16 %68, ptr %70, align 8
  %71 = load ptr, ptr %13, align 8
  %72 = getelementptr inbounds nuw %struct.dsa_area_span, ptr %71, i32 0, i32 6
  store i16 0, ptr %72, align 2
  %73 = load i16, ptr %12, align 2
  %74 = zext i16 %73 to i32
  %75 = icmp eq i32 %74, 0
  br i1 %75, label %76, label %85

76:                                               ; preds = %39
  %77 = load ptr, ptr %13, align 8
  %78 = getelementptr inbounds nuw %struct.dsa_area_span, ptr %77, i32 0, i32 6
  store i16 1, ptr %78, align 2
  %79 = load i64, ptr %14, align 8
  %80 = udiv i64 4096, %79
  %81 = sub i64 %80, 1
  %82 = trunc i64 %81 to i16
  %83 = load ptr, ptr %13, align 8
  %84 = getelementptr inbounds nuw %struct.dsa_area_span, ptr %83, i32 0, i32 7
  store i16 %82, ptr %84, align 4
  br label %96

85:                                               ; preds = %39
  %86 = load i16, ptr %12, align 2
  %87 = zext i16 %86 to i32
  %88 = icmp ne i32 %87, 1
  br i1 %88, label %89, label %95

89:                                               ; preds = %85
  %90 = load i64, ptr %14, align 8
  %91 = udiv i64 65536, %90
  %92 = trunc i64 %91 to i16
  %93 = load ptr, ptr %13, align 8
  %94 = getelementptr inbounds nuw %struct.dsa_area_span, ptr %93, i32 0, i32 7
  store i16 %92, ptr %94, align 4
  br label %95

95:                                               ; preds = %89, %85
  br label %96

96:                                               ; preds = %95, %76
  %97 = load ptr, ptr %13, align 8
  %98 = getelementptr inbounds nuw %struct.dsa_area_span, ptr %97, i32 0, i32 8
  store i16 -1, ptr %98, align 2
  %99 = load ptr, ptr %13, align 8
  %100 = getelementptr inbounds nuw %struct.dsa_area_span, ptr %99, i32 0, i32 7
  %101 = load i16, ptr %100, align 4
  %102 = load ptr, ptr %13, align 8
  %103 = getelementptr inbounds nuw %struct.dsa_area_span, ptr %102, i32 0, i32 9
  store i16 %101, ptr %103, align 8
  %104 = load ptr, ptr %13, align 8
  %105 = getelementptr inbounds nuw %struct.dsa_area_span, ptr %104, i32 0, i32 10
  store i16 1, ptr %105, align 2
  call void @llvm.lifetime.end.p0(i64 8, ptr %14) #8
  call void @llvm.lifetime.end.p0(i64 8, ptr %13) #8
  ret void
}