; Function Attrs: nounwind uwtable
define internal fastcc void @init_span(ptr noundef captures(none) %0, i64 noundef %1, ptr noundef %2, i64 noundef %3, i64 noundef range(i64 0, 4503599627370496) %4, i16 noundef zeroext %5) unnamed_addr #0 {
  %.not.i = icmp eq i64 %1, 0
  br i1 %.not.i, label %dsa_get_address.exit, label %7

7:                                                ; preds = %6
  tail call void asm sideeffect "", "~{memory},~{dirflag},~{fpsr},~{flags}"() #11, !srcloc !9
  %8 = load ptr, ptr %0, align 8
  %9 = getelementptr inbounds nuw i8, ptr %8, i64 6160
  %10 = load i64, ptr %9, align 8
  %11 = getelementptr inbounds nuw i8, ptr %0, i64 40984
  %12 = load i64, ptr %11, align 8
  %.not.i.i = icmp eq i64 %12, %10
  br i1 %.not.i.i, label %check_for_freed_segments.exit.i, label %13, !prof !10

13:                                               ; preds = %7
  %14 = getelementptr inbounds nuw i8, ptr %8, i64 6172
  %15 = tail call zeroext i1 @LWLockAcquire(ptr noundef nonnull %14, i32 noundef 0) #11
  tail call fastcc void @check_for_freed_segments_locked(ptr noundef nonnull %0)
  %16 = load ptr, ptr %0, align 8
  %17 = getelementptr inbounds nuw i8, ptr %16, i64 6172
  tail call void @LWLockRelease(ptr noundef nonnull %17) #11
  br label %check_for_freed_segments.exit.i

check_for_freed_segments.exit.i:                  ; preds = %13, %7
  %18 = lshr i64 %1, 40
  %19 = and i64 %1, 1099511627775
  %.idx.i = mul nuw nsw i64 %18, 40
  %20 = getelementptr i8, ptr %0, i64 24
  %21 = getelementptr i8, ptr %20, i64 %.idx.i
  %22 = load ptr, ptr %21, align 8
  %23 = icmp eq ptr %22, null
  br i1 %23, label %24, label %26, !prof !11

24:                                               ; preds = %check_for_freed_segments.exit.i
  %25 = tail call fastcc ptr @get_segment_by_index(ptr noundef nonnull %0, i64 noundef %18)
  %.pre.i = load ptr, ptr %21, align 8
  br label %26

26:                                               ; preds = %24, %check_for_freed_segments.exit.i
  %27 = phi ptr [ %.pre.i, %24 ], [ %22, %check_for_freed_segments.exit.i ]
  %28 = getelementptr inbounds nuw i8, ptr %27, i64 %19
  br label %dsa_get_address.exit

dsa_get_address.exit:                             ; preds = %6, %26
  %.0.i = phi ptr [ %28, %26 ], [ null, %6 ]
  %29 = zext i16 %5 to i64
  %30 = getelementptr inbounds nuw [38 x i16], ptr @dsa_size_classes, i64 0, i64 %29
  %31 = load i16, ptr %30, align 2
  %32 = getelementptr inbounds nuw i8, ptr %2, i64 24
  %33 = load i64, ptr %32, align 8
  %.not = icmp eq i64 %33, 0
  br i1 %.not, label %56, label %34

34:                                               ; preds = %dsa_get_address.exit
  tail call void asm sideeffect "", "~{memory},~{dirflag},~{fpsr},~{flags}"() #11, !srcloc !9
  %35 = load ptr, ptr %0, align 8
  %36 = getelementptr inbounds nuw i8, ptr %35, i64 6160
  %37 = load i64, ptr %36, align 8
  %38 = getelementptr inbounds nuw i8, ptr %0, i64 40984
  %39 = load i64, ptr %38, align 8
  %.not.i.i36 = icmp eq i64 %39, %37
  br i1 %.not.i.i36, label %check_for_freed_segments.exit.i37, label %40, !prof !10

40:                                               ; preds = %34
  %41 = getelementptr inbounds nuw i8, ptr %35, i64 6172
  %42 = tail call zeroext i1 @LWLockAcquire(ptr noundef nonnull %41, i32 noundef 0) #11
  tail call fastcc void @check_for_freed_segments_locked(ptr noundef nonnull %0)
  %43 = load ptr, ptr %0, align 8
  %44 = getelementptr inbounds nuw i8, ptr %43, i64 6172
  tail call void @LWLockRelease(ptr noundef nonnull %44) #11
  br label %check_for_freed_segments.exit.i37

check_for_freed_segments.exit.i37:                ; preds = %40, %34
  %45 = lshr i64 %33, 40
  %46 = and i64 %33, 1099511627775
  %.idx.i38 = mul nuw nsw i64 %45, 40
  %47 = getelementptr i8, ptr %0, i64 24
  %48 = getelementptr i8, ptr %47, i64 %.idx.i38
  %49 = load ptr, ptr %48, align 8
  %50 = icmp eq ptr %49, null
  br i1 %50, label %51, label %dsa_get_address.exit41, !prof !11

51:                                               ; preds = %check_for_freed_segments.exit.i37
  %52 = tail call fastcc ptr @get_segment_by_index(ptr noundef nonnull %0, i64 noundef %45)
  %.pre.i40 = load ptr, ptr %48, align 8
  br label %dsa_get_address.exit41

dsa_get_address.exit41:                           ; preds = %check_for_freed_segments.exit.i37, %51
  %53 = phi ptr [ %.pre.i40, %51 ], [ %49, %check_for_freed_segments.exit.i37 ]
  %54 = getelementptr inbounds nuw i8, ptr %53, i64 %46
  %55 = getelementptr inbounds nuw i8, ptr %54, i64 8
  store i64 %1, ptr %55, align 8
  br label %56

56:                                               ; preds = %dsa_get_address.exit41, %dsa_get_address.exit
  %57 = load ptr, ptr %0, align 8
  %58 = ptrtoint ptr %2 to i64
  %59 = ptrtoint ptr %57 to i64
  %60 = sub i64 %58, %59
  store i64 %60, ptr %.0.i, align 8
  %61 = load i64, ptr %32, align 8
  %62 = getelementptr inbounds nuw i8, ptr %.0.i, i64 16
  store i64 %61, ptr %62, align 8
  %63 = getelementptr inbounds nuw i8, ptr %.0.i, i64 8
  store i64 0, ptr %63, align 8
  store i64 %1, ptr %32, align 8
  %64 = getelementptr inbounds nuw i8, ptr %.0.i, i64 24
  store i64 %3, ptr %64, align 8
  %65 = getelementptr inbounds nuw i8, ptr %.0.i, i64 32
  store i64 %4, ptr %65, align 8
  %66 = getelementptr inbounds nuw i8, ptr %.0.i, i64 40
  store i16 %5, ptr %66, align 8
  %67 = getelementptr inbounds nuw i8, ptr %.0.i, i64 42
  store i16 0, ptr %67, align 2
  switch i16 %5, label %72 [
    i16 0, label %68
    i16 1, label %._crit_edge
  ]

._crit_edge:                                      ; preds = %56
  %.phi.trans.insert = getelementptr inbounds nuw i8, ptr %.0.i, i64 44
  %.pre = load i16, ptr %.phi.trans.insert, align 4
  br label %76

68:                                               ; preds = %56
  store i16 1, ptr %67, align 2
  %69 = udiv i16 4096, %31
  %70 = add nsw i16 %69, -1
  %71 = getelementptr inbounds nuw i8, ptr %.0.i, i64 44
  store i16 %70, ptr %71, align 4
  br label %76

72:                                               ; preds = %56
  %.rhs.trunc = zext i16 %31 to i32
  %73 = udiv i32 65536, %.rhs.trunc
  %74 = trunc i32 %73 to i16
  %75 = getelementptr inbounds nuw i8, ptr %.0.i, i64 44
  store i16 %74, ptr %75, align 4
  br label %76

76:                                               ; preds = %._crit_edge, %72, %68
  %77 = phi i16 [ %.pre, %._crit_edge ], [ %74, %72 ], [ %70, %68 ]
  %78 = getelementptr inbounds nuw i8, ptr %.0.i, i64 46
  store i16 -1, ptr %78, align 2
  %79 = getelementptr inbounds nuw i8, ptr %.0.i, i64 48
  store i16 %77, ptr %79, align 8
  %80 = getelementptr inbounds nuw i8, ptr %.0.i, i64 50
  store i16 1, ptr %80, align 2
  ret void
}